target datalayout = "e-m:e-p270:32:32-p271:32:32-p272:64:64-i64:64-i128:128-f80:128-n8:16:32:64-S128"
target triple = "x86_64-pc-linux-gnu"

%struct.H5FL_reg_head_t = type { i8, i32, i32, ptr, i64, ptr }
%struct.H5HL_dblk_t = type { %struct.H5C_cache_entry_t, ptr }
%struct.H5C_cache_entry_t = type { ptr, i64, i64, ptr, i8, ptr, i8, i8, i8, i8, i32, i8, i8, i8, i8, i8, i32, ptr, i32, i32, i32, i32, i32, i8, i8, ptr, ptr, ptr, ptr, ptr, ptr, i8, i32, i8, i64, ptr, i64, i64, i32, i8, i32, i32, i8, ptr, ptr, ptr }
%struct.H5HL_t = type { i64, i64, i64, i64, i8, ptr, ptr, i64, i64, i64, ptr, i64, i64, ptr }

@H5_H5HL_dblk_t_reg_free_list = internal global %struct.H5FL_reg_head_t { i8 0, i32 0, i32 0, ptr @.str.13, i64 256, ptr null }, align 8
@.str = private unnamed_addr constant [102 x i8] c"generated/home/dtcxzyw/WorkSpace/Projects/compilers/llvm-opt-benchmark/bench/hdf5/hdf5/src/H5HLdblk.c\00", align 1
@H5E_HEAP_g = external global i64, align 8
@__func__.H5HL__dblk_dest = private unnamed_addr constant [16 x i8] c"H5HL__dblk_dest\00", align 1
@H5E_CANTDEC_g = external global i64, align 8
@.str.3 = private unnamed_addr constant [32 x i8] c"can't decrement heap ref. count\00", align 1

; Function Attrs: nounwind uwtable
define i32 @H5HL__dblk_dest(ptr noundef %0) #0 {
  %2 = alloca ptr, align 8
  %3 = alloca i32, align 4
  %4 = alloca i8, align 1
  store ptr %0, ptr %2, align 8
  store i32 0, ptr %3, align 4
  store i8 0, ptr %4, align 1
  %5 = load ptr, ptr %2, align 8
  %6 = getelementptr inbounds %struct.H5HL_dblk_t, ptr %5, i32 0, i32 1
  %7 = load ptr, ptr %6, align 8
  %8 = icmp ne ptr %7, null
  br i1 %8, label %9, label %37

9:                                                ; preds = %1
  %10 = load ptr, ptr %2, align 8
  %11 = getelementptr inbounds %struct.H5HL_dblk_t, ptr %10, i32 0, i32 1
  %12 = load ptr, ptr %11, align 8
  %13 = getelementptr inbounds %struct.H5HL_t, ptr %12, i32 0, i32 10
  store ptr null, ptr %13, align 8
  %14 = load ptr, ptr %2, align 8
  %15 = getelementptr inbounds %struct.H5HL_dblk_t, ptr %14, i32 0, i32 1
  %16 = load ptr, ptr %15, align 8
  %17 = call i32 @H5HL__dec_rc(ptr noundef %16)
  %18 = icmp eq i32 -1, %17
  br i1 %18, label %19, label %34

19:                                               ; preds = %9
  br label %20

20:                                               ; preds = %19
  br label %21

21:                                               ; preds = %20
  br label %22

22:                                               ; preds = %21
  %23 = load i64, ptr @H5E_HEAP_g, align 8
  %24 = load i64, ptr @H5E_CANTDEC_g, align 8
  %25 = call i32 (ptr, ptr, i32, i64, i64, ptr, ...) @H5E_printf_stack(ptr noundef @.str, ptr noundef @__func__.H5HL__dblk_dest, i32 noundef 139, i64 noundef %23, i64 noundef %24, ptr noundef @.str.3)
  br label %26

26:                                               ; preds = %22
  store i8 1, ptr %4, align 1
  %27 = load i8, ptr %4, align 1
  %28 = trunc i8 %27 to i1
  %29 = zext i1 %28 to i8
  store i8 %29, ptr %4, align 1
  br label %30

30:                                               ; preds = %26
  br label %31

31:                                               ; preds = %30
  store i32 -1, ptr %3, align 4
  br label %38

32:                                               ; No predecessors!
  br label %33

33:                                               ; preds = %32
  br label %34

34:                                               ; preds = %33, %9
  %35 = load ptr, ptr %2, align 8
  %36 = getelementptr inbounds %struct.H5HL_dblk_t, ptr %35, i32 0, i32 1
  store ptr null, ptr %36, align 8
  br label %37

37:                                               ; preds = %34, %1
  br label %38

38:                                               ; preds = %37, %31
  %39 = load ptr, ptr %2, align 8
  %40 = call ptr @H5FL_reg_free(ptr noundef @H5_H5HL_dblk_t_reg_free_list, ptr noundef %39)
  store ptr %40, ptr %2, align 8
  %41 = load i32, ptr %3, align 4
  ret i32 %41
}