; Function Attrs: nounwind uwtable
define range(i32 -1, 1) i32 @H5HL__dblk_dest(ptr noundef %0) local_unnamed_addr #0 {
  %2 = getelementptr inbounds i8, ptr %0, i64 248
  %3 = load ptr, ptr %2, align 8
  %.not = icmp eq ptr %3, null
  br i1 %.not, label %14, label %4

4:                                                ; preds = %1
  %5 = getelementptr inbounds i8, ptr %3, i64 80
  store ptr null, ptr %5, align 8
  %6 = load ptr, ptr %2, align 8
  %7 = tail call i32 @H5HL__dec_rc(ptr noundef %6) #2
  %8 = icmp eq i32 %7, -1
  br i1 %8, label %9, label %13

9:                                                ; preds = %4
  %10 = load i64, ptr @H5E_HEAP_g, align 8
  %11 = load i64, ptr @H5E_CANTDEC_g, align 8
  %12 = tail call i32 (ptr, ptr, i32, i64, i64, ptr, ...) @H5E_printf_stack(ptr noundef nonnull @.str, ptr noundef nonnull @__func__.H5HL__dblk_dest, i32 noundef 139, i64 noundef %10, i64 noundef %11, ptr noundef nonnull @.str.3) #2
  br label %14

13:                                               ; preds = %4
  store ptr null, ptr %2, align 8
  br label %14

14:                                               ; preds = %1, %13, %9
  %.0 = phi i32 [ -1, %9 ], [ 0, %13 ], [ 0, %1 ]
  %15 = tail call ptr @H5FL_reg_free(ptr noundef nonnull @H5_H5HL_dblk_t_reg_free_list, ptr noundef nonnull %0) #2
  ret i32 %.0
}